; ModuleID = '16/1064.c'
source_filename = "16/1064.c"
target datalayout = "e-m:e-p270:32:32-p271:32:32-p272:64:64-i64:64-f80:128-n8:16:32:64-S128"
target triple = "x86_64-pc-linux-gnu"

@.str = private unnamed_addr constant [3 x i8] c"%d\00", align 1
@.str.1 = private unnamed_addr constant [9 x i8] c"%d%d%d%d\00", align 1
@.str.2 = private unnamed_addr constant [7 x i8] c"%d%d%d\00", align 1
@.str.3 = private unnamed_addr constant [5 x i8] c"%d%d\00", align 1

; Function Attrs: noinline nounwind uwtable
define dso_local i32 @main() #0 {
  %1 = alloca i32, align 4
  %2 = alloca i32, align 4
  %3 = alloca i32, align 4
  %4 = alloca i32, align 4
  %5 = alloca i32, align 4
  %6 = alloca i32, align 4
  store i32 0, i32* %1, align 4
  %7 = call i32 (i8*, ...) @__isoc99_scanf(i8* getelementptr inbounds ([3 x i8], [3 x i8]* @.str, i64 0, i64 0), i32* %2)
  %8 = load i32, i32* %2, align 4
  %9 = srem i32 %8, 10
  store i32 %9, i32* %3, align 4
  %10 = load i32, i32* %2, align 4
  %11 = load i32, i32* %3, align 4
  %12 = sub nsw i32 %10, %11
  %13 = sdiv i32 %12, 10
  store i32 %13, i32* %2, align 4
  %14 = load i32, i32* %2, align 4
  %15 = srem i32 %14, 10
  store i32 %15, i32* %4, align 4
  %16 = load i32, i32* %2, align 4
  %17 = load i32, i32* %4, align 4
  %18 = sub nsw i32 %16, %17
  %19 = sdiv i32 %18, 10
  store i32 %19, i32* %2, align 4
  %20 = load i32, i32* %2, align 4
  %21 = srem i32 %20, 10
  store i32 %21, i32* %5, align 4
  %22 = load i32, i32* %2, align 4
  %23 = load i32, i32* %5, align 4
  %24 = sub nsw i32 %22, %23
  %25 = sdiv i32 %24, 10
  store i32 %25, i32* %2, align 4
  %26 = load i32, i32* %2, align 4
  %27 = srem i32 %26, 10
  store i32 %27, i32* %6, align 4
  %28 = load i32, i32* %6, align 4
  %29 = icmp ne i32 %28, 0
  br i1 %29, label %30, label %36

30:                                               ; preds = %0
  %31 = load i32, i32* %3, align 4
  %32 = load i32, i32* %4, align 4
  %33 = load i32, i32* %5, align 4
  %34 = load i32, i32* %6, align 4
  %35 = call i32 (i8*, ...) @printf(i8* getelementptr inbounds ([9 x i8], [9 x i8]* @.str.1, i64 0, i64 0), i32 %31, i32 %32, i32 %33, i32 %34)
  br label %56

36:                                               ; preds = %0
  %37 = load i32, i32* %5, align 4
  %38 = icmp ne i32 %37, 0
  br i1 %38, label %39, label %44

39:                                               ; preds = %36
  %40 = load i32, i32* %3, align 4
  %41 = load i32, i32* %4, align 4
  %42 = load i32, i32* %5, align 4
  %43 = call i32 (i8*, ...) @printf(i8* getelementptr inbounds ([7 x i8], [7 x i8]* @.str.2, i64 0, i64 0), i32 %40, i32 %41, i32 %42)
  br label %55

44:                                               ; preds = %36
  %45 = load i32, i32* %4, align 4
  %46 = icmp ne i32 %45, 0
  br i1 %46, label %47, label %51

47:                                               ; preds = %44
  %48 = load i32, i32* %3, align 4
  %49 = load i32, i32* %4, align 4
  %50 = call i32 (i8*, ...) @printf(i8* getelementptr inbounds ([5 x i8], [5 x i8]* @.str.3, i64 0, i64 0), i32 %48, i32 %49)
  br label %54

51:                                               ; preds = %44
  %52 = load i32, i32* %3, align 4
  %53 = call i32 (i8*, ...) @printf(i8* getelementptr inbounds ([3 x i8], [3 x i8]* @.str, i64 0, i64 0), i32 %52)
  br label %54

54:                                               ; preds = %51, %47
  br label %55

55:                                               ; preds = %54, %39
  br label %56

56:                                               ; preds = %55, %30
  ret i32 0
}

declare dso_local i32 @__isoc99_scanf(i8*, ...) #1

declare dso_local i32 @printf(i8*, ...) #1


!llvm.module.flags = !{!0}
!llvm.ident = !{!1}

!0 = !{i32 1, !"wchar_size", i32 4}
!1 = !{!"clang version 10.0.0-4ubuntu1 "}
